target datalayout = "e-m:e-p270:32:32-p271:32:32-p272:64:64-i64:64-i128:128-f80:128-n8:16:32:64-S128"
target triple = "x86_64-pc-linux-gnu"

%"struct.tbb::detail::r1::cpu_features_type" = type { i8, i8, i8 }

; Function Attrs: mustprogress nounwind sspstrong uwtable
define void @_ZN3tbb6detail2r111check_cpuidEiiPi(i32 noundef %0, i32 noundef %1, ptr noundef %2) #2 {
  %4 = alloca i32, align 4
  %5 = alloca i32, align 4
  %6 = alloca ptr, align 8
  %7 = alloca i32, align 4
  %8 = alloca i32, align 4
  %9 = alloca i32, align 4
  %10 = alloca i32, align 4
  store i32 %0, ptr %4, align 4, !tbaa !8
  store i32 %1, ptr %5, align 4, !tbaa !8
  store ptr %2, ptr %6, align 8, !tbaa !13
  call void @llvm.lifetime.start.p0(i64 4, ptr %7) #13
  store i32 0, ptr %7, align 4, !tbaa !8
  call void @llvm.lifetime.start.p0(i64 4, ptr %8) #13
  store i32 0, ptr %8, align 4, !tbaa !8
  call void @llvm.lifetime.start.p0(i64 4, ptr %9) #13
  store i32 0, ptr %9, align 4, !tbaa !8
  call void @llvm.lifetime.start.p0(i64 4, ptr %10) #13
  store i32 0, ptr %10, align 4, !tbaa !8
  %11 = load i32, ptr %4, align 4, !tbaa !8
  %12 = load i32, ptr %5, align 4, !tbaa !8
  %13 = call { i32, i32, i32, i32 } asm "cpuid", "={ax},={bx},={cx},={dx},0,2,~{dirflag},~{fpsr},~{flags}"(i32 %11, i32 %12) #15, !srcloc !32
  %14 = extractvalue { i32, i32, i32, i32 } %13, 0
  %15 = extractvalue { i32, i32, i32, i32 } %13, 1
  %16 = extractvalue { i32, i32, i32, i32 } %13, 2
  %17 = extractvalue { i32, i32, i32, i32 } %13, 3
  store i32 %14, ptr %7, align 4, !tbaa !8
  store i32 %15, ptr %8, align 4, !tbaa !8
  store i32 %16, ptr %9, align 4, !tbaa !8
  store i32 %17, ptr %10, align 4, !tbaa !8
  %18 = load i32, ptr %7, align 4, !tbaa !8
  %19 = load ptr, ptr %6, align 8, !tbaa !13
  %20 = getelementptr inbounds i32, ptr %19, i64 0
  store i32 %18, ptr %20, align 4, !tbaa !8
  %21 = load i32, ptr %8, align 4, !tbaa !8
  %22 = load ptr, ptr %6, align 8, !tbaa !13
  %23 = getelementptr inbounds i32, ptr %22, i64 1
  store i32 %21, ptr %23, align 4, !tbaa !8
  %24 = load i32, ptr %9, align 4, !tbaa !8
  %25 = load ptr, ptr %6, align 8, !tbaa !13
  %26 = getelementptr inbounds i32, ptr %25, i64 2
  store i32 %24, ptr %26, align 4, !tbaa !8
  %27 = load i32, ptr %10, align 4, !tbaa !8
  %28 = load ptr, ptr %6, align 8, !tbaa !13
  %29 = getelementptr inbounds i32, ptr %28, i64 3
  store i32 %27, ptr %29, align 4, !tbaa !8
  call void @llvm.lifetime.end.p0(i64 4, ptr %10) #13
  call void @llvm.lifetime.end.p0(i64 4, ptr %9) #13
  call void @llvm.lifetime.end.p0(i64 4, ptr %8) #13
  call void @llvm.lifetime.end.p0(i64 4, ptr %7) #13
  ret void
}

; Function Attrs: mustprogress nounwind sspstrong uwtable
define linkonce_odr void @_ZN3tbb6detail2d023suppress_unused_warningIJRNS0_2r117cpu_features_typeEEEEvDpOT_(ptr noundef nonnull align 1 dereferenceable(3) %0) #2 comdat {
  %2 = alloca ptr, align 8
  store ptr %0, ptr %2, align 8, !tbaa !33
  ret void
}

; Function Attrs: mustprogress sspstrong uwtable
define void @_ZN3tbb6detail2r119detect_cpu_featuresERNS1_17cpu_features_typeE(ptr noundef nonnull align 1 dereferenceable(3) %0) #0 {
  %2 = alloca ptr, align 8
  %3 = alloca i32, align 4
  %4 = alloca i32, align 4
  %5 = alloca i32, align 4
  %6 = alloca [4 x i32], align 16
  store ptr %0, ptr %2, align 8, !tbaa !33
  %7 = load ptr, ptr %2, align 8, !tbaa !33
  call void @_ZN3tbb6detail2d023suppress_unused_warningIJRNS0_2r117cpu_features_typeEEEEvDpOT_(ptr noundef nonnull align 1 dereferenceable(3) %7)
  call void @llvm.lifetime.start.p0(i64 4, ptr %3) #13
  store i32 2048, ptr %3, align 4, !tbaa !8
  call void @llvm.lifetime.start.p0(i64 4, ptr %4) #13
  store i32 32, ptr %4, align 4, !tbaa !8
  call void @llvm.lifetime.start.p0(i64 4, ptr %5) #13
  store i32 32768, ptr %5, align 4, !tbaa !8
  call void @llvm.lifetime.start.p0(i64 16, ptr %6) #13
  call void @llvm.memset.p0.i64(ptr align 16 %6, i8 0, i64 16, i1 false)
  %8 = getelementptr inbounds [4 x i32], ptr %6, i64 0, i64 0
  call void @_ZN3tbb6detail2r111check_cpuidEiiPi(i32 noundef 7, i32 noundef 0, ptr noundef %8)
  %9 = getelementptr inbounds [4 x i32], ptr %6, i64 0, i64 1
  %10 = load i32, ptr %9, align 4, !tbaa !8
  %11 = and i32 %10, 2048
  %12 = icmp ne i32 %11, 0
  %13 = load ptr, ptr %2, align 8, !tbaa !33
  %14 = getelementptr inbounds nuw %"struct.tbb::detail::r1::cpu_features_type", ptr %13, i32 0, i32 0
  %15 = zext i1 %12 to i8
  store i8 %15, ptr %14, align 1, !tbaa !35
  %16 = getelementptr inbounds [4 x i32], ptr %6, i64 0, i64 2
  %17 = load i32, ptr %16, align 8, !tbaa !8
  %18 = and i32 %17, 32
  %19 = icmp ne i32 %18, 0
  %20 = load ptr, ptr %2, align 8, !tbaa !33
  %21 = getelementptr inbounds nuw %"struct.tbb::detail::r1::cpu_features_type", ptr %20, i32 0, i32 1
  %22 = zext i1 %19 to i8
  store i8 %22, ptr %21, align 1, !tbaa !37
  %23 = getelementptr inbounds [4 x i32], ptr %6, i64 0, i64 3
  %24 = load i32, ptr %23, align 4, !tbaa !8
  %25 = and i32 %24, 32768
  %26 = icmp ne i32 %25, 0
  %27 = load ptr, ptr %2, align 8, !tbaa !33
  %28 = getelementptr inbounds nuw %"struct.tbb::detail::r1::cpu_features_type", ptr %27, i32 0, i32 2
  %29 = zext i1 %26 to i8
  store i8 %29, ptr %28, align 1, !tbaa !38
  call void @llvm.lifetime.end.p0(i64 16, ptr %6) #13
  call void @llvm.lifetime.end.p0(i64 4, ptr %5) #13
  call void @llvm.lifetime.end.p0(i64 4, ptr %4) #13
  call void @llvm.lifetime.end.p0(i64 4, ptr %3) #13
  ret void
}