; Function Attrs: mustprogress sspstrong memory(argmem: write) uwtable
define void @_ZN3tbb6detail2r119detect_cpu_featuresERNS1_17cpu_features_typeE(ptr noundef nonnull writeonly align 1 captures(none) dereferenceable(3) initializes((0, 3)) %0) local_unnamed_addr #7 {
  %2 = tail call { i32, i32, i32, i32 } asm "cpuid", "={ax},={bx},={cx},={dx},0,2,~{dirflag},~{fpsr},~{flags}"(i32 7, i32 0) #20, !srcloc !21
  %3 = extractvalue { i32, i32, i32, i32 } %2, 1
  %4 = extractvalue { i32, i32, i32, i32 } %2, 2
  %5 = extractvalue { i32, i32, i32, i32 } %2, 3
  %6 = lshr i32 %3, 11
  %7 = trunc i32 %6 to i8
  %8 = and i8 %7, 1
  store i8 %8, ptr %0, align 1, !tbaa !22
  %9 = getelementptr inbounds nuw i8, ptr %0, i64 1
  %10 = trunc i32 %4 to i8
  %11 = lshr i8 %10, 5
  %12 = and i8 %11, 1
  store i8 %12, ptr %9, align 1, !tbaa !25
  %13 = getelementptr inbounds nuw i8, ptr %0, i64 2
  %14 = lshr i32 %5, 15
  %15 = trunc i32 %14 to i8
  %16 = and i8 %15, 1
  store i8 %16, ptr %13, align 1, !tbaa !26
  ret void
}